target datalayout = "e-m:e-p270:32:32-p271:32:32-p272:64:64-i64:64-i128:128-f80:128-n8:16:32:64-S128"
target triple = "x86_64-pc-linux-gnu"

%struct.ForEachState = type { ptr, i32 }
%struct.List = type { i32, i32, i32, ptr, [0 x %union.ListCell] }
%union.ListCell = type { ptr }
%struct.Plan = type { i32, i32, double, double, double, i32, i8, i8, i8, i32, ptr, ptr, ptr, ptr, ptr, ptr, ptr }
%struct.MergeAppend = type { %struct.Plan, ptr, ptr, i32, ptr, ptr, ptr, ptr, i32 }

; Function Attrs: nounwind uwtable
define internal ptr @offset_relid_set(ptr noundef %0, i32 noundef %1) #0 {
  %3 = alloca ptr, align 8
  %4 = alloca ptr, align 8
  %5 = alloca i32, align 4
  %6 = alloca ptr, align 8
  %7 = alloca i32, align 4
  %8 = alloca i32, align 4
  store ptr %0, ptr %4, align 8
  store i32 %1, ptr %5, align 4
  call void @llvm.lifetime.start.p0(i64 8, ptr %6) #8
  store ptr null, ptr %6, align 8
  call void @llvm.lifetime.start.p0(i64 4, ptr %7) #8
  %9 = load i32, ptr %5, align 4
  %10 = icmp eq i32 %9, 0
  br i1 %10, label %11, label %13

11:                                               ; preds = %2
  %12 = load ptr, ptr %4, align 8
  store ptr %12, ptr %3, align 8
  store i32 1, ptr %8, align 4
  br label %27

13:                                               ; preds = %2
  store i32 -1, ptr %7, align 4
  br label %14

14:                                               ; preds = %19, %13
  %15 = load ptr, ptr %4, align 8
  %16 = load i32, ptr %7, align 4
  %17 = call i32 @bms_next_member(ptr noundef %15, i32 noundef %16)
  store i32 %17, ptr %7, align 4
  %18 = icmp sge i32 %17, 0
  br i1 %18, label %19, label %25

19:                                               ; preds = %14
  %20 = load ptr, ptr %6, align 8
  %21 = load i32, ptr %7, align 4
  %22 = load i32, ptr %5, align 4
  %23 = add i32 %21, %22
  %24 = call ptr @bms_add_member(ptr noundef %20, i32 noundef %23)
  store ptr %24, ptr %6, align 8
  br label %14, !llvm.loop !41

25:                                               ; preds = %14
  %26 = load ptr, ptr %6, align 8
  store ptr %26, ptr %3, align 8
  store i32 1, ptr %8, align 4
  br label %27

27:                                               ; preds = %25, %11
  call void @llvm.lifetime.end.p0(i64 4, ptr %7) #8
  call void @llvm.lifetime.end.p0(i64 8, ptr %6) #8
  %28 = load ptr, ptr %3, align 8
  ret ptr %28
}

; Function Attrs: nounwind uwtable
define internal ptr @clean_up_removed_plan_level(ptr noundef %0, ptr noundef %1) #0 {
  %3 = alloca ptr, align 8
  %4 = alloca ptr, align 8
  %5 = alloca double, align 8
  %6 = alloca i8, align 1
  store ptr %0, ptr %3, align 8
  store ptr %1, ptr %4, align 8
  %7 = load ptr, ptr %3, align 8
  %8 = getelementptr inbounds nuw %struct.Plan, ptr %7, i32 0, i32 14
  %9 = load ptr, ptr %8, align 8
  %10 = icmp ne ptr %9, null
  br i1 %10, label %11, label %40

11:                                               ; preds = %2
  call void @llvm.lifetime.start.p0(i64 8, ptr %5) #8
  call void @llvm.lifetime.start.p0(i64 1, ptr %6) #8
  %12 = load ptr, ptr %3, align 8
  %13 = getelementptr inbounds nuw %struct.Plan, ptr %12, i32 0, i32 14
  %14 = load ptr, ptr %13, align 8
  call void @SS_compute_initplan_cost(ptr noundef %14, ptr noundef %5, ptr noundef %6)
  %15 = load double, ptr %5, align 8
  %16 = load ptr, ptr %4, align 8
  %17 = getelementptr inbounds nuw %struct.Plan, ptr %16, i32 0, i32 2
  %18 = load double, ptr %17, align 8
  %19 = fadd double %18, %15
  store double %19, ptr %17, align 8
  %20 = load double, ptr %5, align 8
  %21 = load ptr, ptr %4, align 8
  %22 = getelementptr inbounds nuw %struct.Plan, ptr %21, i32 0, i32 3
  %23 = load double, ptr %22, align 8
  %24 = fadd double %23, %20
  store double %24, ptr %22, align 8
  %25 = load i8, ptr %6, align 1, !range !7, !noundef !8
  %26 = trunc i8 %25 to i1
  br i1 %26, label %27, label %30

27:                                               ; preds = %11
  %28 = load ptr, ptr %4, align 8
  %29 = getelementptr inbounds nuw %struct.Plan, ptr %28, i32 0, i32 7
  store i8 0, ptr %29, align 1
  br label %30

30:                                               ; preds = %27, %11
  %31 = load ptr, ptr %3, align 8
  %32 = getelementptr inbounds nuw %struct.Plan, ptr %31, i32 0, i32 14
  %33 = load ptr, ptr %32, align 8
  %34 = load ptr, ptr %4, align 8
  %35 = getelementptr inbounds nuw %struct.Plan, ptr %34, i32 0, i32 14
  %36 = load ptr, ptr %35, align 8
  %37 = call ptr @list_concat(ptr noundef %33, ptr noundef %36)
  %38 = load ptr, ptr %4, align 8
  %39 = getelementptr inbounds nuw %struct.Plan, ptr %38, i32 0, i32 14
  store ptr %37, ptr %39, align 8
  call void @llvm.lifetime.end.p0(i64 1, ptr %6) #8
  call void @llvm.lifetime.end.p0(i64 8, ptr %5) #8
  br label %40

40:                                               ; preds = %30, %2
  %41 = load ptr, ptr %4, align 8
  %42 = getelementptr inbounds nuw %struct.Plan, ptr %41, i32 0, i32 10
  %43 = load ptr, ptr %42, align 8
  %44 = load ptr, ptr %3, align 8
  %45 = getelementptr inbounds nuw %struct.Plan, ptr %44, i32 0, i32 10
  %46 = load ptr, ptr %45, align 8
  call void @apply_tlist_labeling(ptr noundef %43, ptr noundef %46)
  %47 = load ptr, ptr %4, align 8
  ret ptr %47
}

; Function Attrs: inlinehint nounwind uwtable
define internal ptr @list_nth_cell(ptr noundef %0, i32 noundef %1) #2 {
  %3 = alloca ptr, align 8
  %4 = alloca i32, align 4
  store ptr %0, ptr %3, align 8
  store i32 %1, ptr %4, align 4
  %5 = load ptr, ptr %3, align 8
  %6 = getelementptr inbounds nuw %struct.List, ptr %5, i32 0, i32 3
  %7 = load ptr, ptr %6, align 8
  %8 = load i32, ptr %4, align 4
  %9 = sext i32 %8 to i64
  %10 = getelementptr inbounds %union.ListCell, ptr %7, i64 %9
  ret ptr %10
}

; Function Attrs: inlinehint nounwind uwtable
define internal i32 @list_length(ptr noundef %0) #2 {
  %2 = alloca ptr, align 8
  store ptr %0, ptr %2, align 8
  %3 = load ptr, ptr %2, align 8
  %4 = icmp ne ptr %3, null
  br i1 %4, label %5, label %9

5:                                                ; preds = %1
  %6 = load ptr, ptr %2, align 8
  %7 = getelementptr inbounds nuw %struct.List, ptr %6, i32 0, i32 1
  %8 = load i32, ptr %7, align 4
  br label %10

9:                                                ; preds = %1
  br label %10

10:                                               ; preds = %9, %5
  %11 = phi i32 [ %8, %5 ], [ 0, %9 ]
  ret i32 %11
}

; Function Attrs: nounwind uwtable
define internal ptr @set_mergeappend_references(ptr noundef %0, ptr noundef %1, i32 noundef %2) #0 {
  %4 = alloca ptr, align 8
  %5 = alloca ptr, align 8
  %6 = alloca ptr, align 8
  %7 = alloca i32, align 4
  %8 = alloca ptr, align 8
  %9 = alloca %struct.ForEachState, align 8
  %10 = alloca ptr, align 8
  %11 = alloca i32, align 4
  store ptr %0, ptr %5, align 8
  store ptr %1, ptr %6, align 8
  store i32 %2, ptr %7, align 4
  call void @llvm.lifetime.start.p0(i64 8, ptr %8) #8
  call void @llvm.lifetime.start.p0(i64 16, ptr %9) #8
  %12 = getelementptr inbounds nuw %struct.ForEachState, ptr %9, i32 0, i32 0
  %13 = load ptr, ptr %6, align 8
  %14 = getelementptr inbounds nuw %struct.MergeAppend, ptr %13, i32 0, i32 2
  %15 = load ptr, ptr %14, align 8
  store ptr %15, ptr %12, align 8
  %16 = getelementptr inbounds nuw %struct.ForEachState, ptr %9, i32 0, i32 1
  store i32 0, ptr %16, align 8
  %17 = getelementptr i8, ptr %9, i64 12
  call void @llvm.memset.p0.i64(ptr align 4 %17, i8 0, i64 4, i1 false)
  br label %18

18:                                               ; preds = %51, %3
  %19 = getelementptr inbounds nuw %struct.ForEachState, ptr %9, i32 0, i32 0
  %20 = load ptr, ptr %19, align 8
  %21 = icmp ne ptr %20, null
  br i1 %21, label %22, label %39

22:                                               ; preds = %18
  %23 = getelementptr inbounds nuw %struct.ForEachState, ptr %9, i32 0, i32 1
  %24 = load i32, ptr %23, align 8
  %25 = getelementptr inbounds nuw %struct.ForEachState, ptr %9, i32 0, i32 0
  %26 = load ptr, ptr %25, align 8
  %27 = getelementptr inbounds nuw %struct.List, ptr %26, i32 0, i32 1
  %28 = load i32, ptr %27, align 4
  %29 = icmp slt i32 %24, %28
  br i1 %29, label %30, label %39

30:                                               ; preds = %22
  %31 = getelementptr inbounds nuw %struct.ForEachState, ptr %9, i32 0, i32 0
  %32 = load ptr, ptr %31, align 8
  %33 = getelementptr inbounds nuw %struct.List, ptr %32, i32 0, i32 3
  %34 = load ptr, ptr %33, align 8
  %35 = getelementptr inbounds nuw %struct.ForEachState, ptr %9, i32 0, i32 1
  %36 = load i32, ptr %35, align 8
  %37 = sext i32 %36 to i64
  %38 = getelementptr inbounds %union.ListCell, ptr %34, i64 %37
  store ptr %38, ptr %8, align 8
  br label %40

39:                                               ; preds = %22, %18
  store ptr null, ptr %8, align 8
  br label %40

40:                                               ; preds = %39, %30
  %41 = phi i32 [ 1, %30 ], [ 0, %39 ]
  %42 = icmp ne i32 %41, 0
  br i1 %42, label %44, label %43

43:                                               ; preds = %40
  call void @llvm.lifetime.end.p0(i64 16, ptr %9) #8
  br label %55

44:                                               ; preds = %40
  %45 = load ptr, ptr %5, align 8
  %46 = load ptr, ptr %8, align 8
  %47 = load ptr, ptr %46, align 8
  %48 = load i32, ptr %7, align 4
  %49 = call ptr @set_plan_refs(ptr noundef %45, ptr noundef %47, i32 noundef %48)
  %50 = load ptr, ptr %8, align 8
  store ptr %49, ptr %50, align 8
  br label %51

51:                                               ; preds = %44
  %52 = getelementptr inbounds nuw %struct.ForEachState, ptr %9, i32 0, i32 1
  %53 = load i32, ptr %52, align 8
  %54 = add i32 %53, 1
  store i32 %54, ptr %52, align 8
  br label %18, !llvm.loop !37

55:                                               ; preds = %43
  %56 = load ptr, ptr %6, align 8
  %57 = getelementptr inbounds nuw %struct.MergeAppend, ptr %56, i32 0, i32 2
  %58 = load ptr, ptr %57, align 8
  %59 = call i32 @list_length(ptr noundef %58)
  %60 = icmp eq i32 %59, 1
  br i1 %60, label %61, label %87

61:                                               ; preds = %55
  call void @llvm.lifetime.start.p0(i64 8, ptr %10) #8
  %62 = load ptr, ptr %6, align 8
  %63 = getelementptr inbounds nuw %struct.MergeAppend, ptr %62, i32 0, i32 2
  %64 = load ptr, ptr %63, align 8
  %65 = call ptr @list_nth_cell(ptr noundef %64, i32 noundef 0)
  %66 = load ptr, ptr %65, align 8
  store ptr %66, ptr %10, align 8
  %67 = load ptr, ptr %10, align 8
  %68 = getelementptr inbounds nuw %struct.Plan, ptr %67, i32 0, i32 6
  %69 = load i8, ptr %68, align 4, !range !7, !noundef !8
  %70 = trunc i8 %69 to i1
  %71 = zext i1 %70 to i32
  %72 = load ptr, ptr %6, align 8
  %73 = getelementptr inbounds nuw %struct.MergeAppend, ptr %72, i32 0, i32 0
  %74 = getelementptr inbounds nuw %struct.Plan, ptr %73, i32 0, i32 6
  %75 = load i8, ptr %74, align 4, !range !7, !noundef !8
  %76 = trunc i8 %75 to i1
  %77 = zext i1 %76 to i32
  %78 = icmp eq i32 %71, %77
  br i1 %78, label %79, label %83

79:                                               ; preds = %61
  %80 = load ptr, ptr %6, align 8
  %81 = load ptr, ptr %10, align 8
  %82 = call ptr @clean_up_removed_plan_level(ptr noundef %80, ptr noundef %81)
  store ptr %82, ptr %4, align 8
  store i32 1, ptr %11, align 4
  br label %84

83:                                               ; preds = %61
  store i32 0, ptr %11, align 4
  br label %84

84:                                               ; preds = %83, %79
  call void @llvm.lifetime.end.p0(i64 8, ptr %10) #8
  %85 = load i32, ptr %11, align 4
  switch i32 %85, label %112 [
    i32 0, label %86
  ]

86:                                               ; preds = %84
  br label %87

87:                                               ; preds = %86, %55
  %88 = load ptr, ptr %6, align 8
  %89 = load i32, ptr %7, align 4
  call void @set_dummy_tlist_references(ptr noundef %88, i32 noundef %89)
  %90 = load ptr, ptr %6, align 8
  %91 = getelementptr inbounds nuw %struct.MergeAppend, ptr %90, i32 0, i32 1
  %92 = load ptr, ptr %91, align 8
  %93 = load i32, ptr %7, align 4
  %94 = call ptr @offset_relid_set(ptr noundef %92, i32 noundef %93)
  %95 = load ptr, ptr %6, align 8
  %96 = getelementptr inbounds nuw %struct.MergeAppend, ptr %95, i32 0, i32 1
  store ptr %94, ptr %96, align 8
  %97 = load ptr, ptr %6, align 8
  %98 = getelementptr inbounds nuw %struct.MergeAppend, ptr %97, i32 0, i32 8
  %99 = load i32, ptr %98, align 8
  %100 = icmp sge i32 %99, 0
  br i1 %100, label %101, label %110

101:                                              ; preds = %87
  %102 = load ptr, ptr %5, align 8
  %103 = load ptr, ptr %6, align 8
  %104 = getelementptr inbounds nuw %struct.MergeAppend, ptr %103, i32 0, i32 8
  %105 = load i32, ptr %104, align 8
  %106 = load i32, ptr %7, align 4
  %107 = call i32 @register_partpruneinfo(ptr noundef %102, i32 noundef %105, i32 noundef %106)
  %108 = load ptr, ptr %6, align 8
  %109 = getelementptr inbounds nuw %struct.MergeAppend, ptr %108, i32 0, i32 8
  store i32 %107, ptr %109, align 8
  br label %110

110:                                              ; preds = %101, %87
  %111 = load ptr, ptr %6, align 8
  store ptr %111, ptr %4, align 8
  store i32 1, ptr %11, align 4
  br label %112

112:                                              ; preds = %110, %84
  call void @llvm.lifetime.end.p0(i64 8, ptr %8) #8
  %113 = load ptr, ptr %4, align 8
  ret ptr %113
}