; Function Attrs: nounwind uwtable
define internal fastcc ptr @set_mergeappend_references(ptr noundef %0, ptr noundef nonnull captures(ret: address, provenance) %1, i32 noundef %2) unnamed_addr #0 {
  %4 = alloca double, align 8
  %5 = alloca i8, align 1
  %6 = getelementptr inbounds nuw i8, ptr %1, i64 112
  %7 = load ptr, ptr %6, align 8
  %8 = getelementptr inbounds nuw i8, ptr %7, i64 4
  %.not = icmp eq ptr %7, null
  br i1 %.not, label %list_length.exit.thread, label %.lr.ph

.lr.ph:                                           ; preds = %3
  %9 = getelementptr inbounds nuw i8, ptr %7, i64 16
  %10 = load i32, ptr %8, align 4
  %11 = icmp sgt i32 %10, 0
  br i1 %11, label %.lr.ph40, label %list_length.exit

._crit_edge:                                      ; preds = %.lr.ph40
  %.pre = load ptr, ptr %6, align 8
  %.not.i = icmp eq ptr %.pre, null
  br i1 %.not.i, label %list_length.exit.thread, label %list_length.exit

list_length.exit:                                 ; preds = %.lr.ph, %._crit_edge
  %12 = phi ptr [ %.pre, %._crit_edge ], [ %7, %.lr.ph ]
  %13 = getelementptr inbounds nuw i8, ptr %12, i64 4
  %14 = load i32, ptr %13, align 4
  %15 = icmp eq i32 %14, 1
  br i1 %15, label %23, label %list_length.exit.thread

.lr.ph40:                                         ; preds = %.lr.ph, %.lr.ph40
  %indvars.iv = phi i64 [ %indvars.iv.next, %.lr.ph40 ], [ 0, %.lr.ph ]
  %16 = load ptr, ptr %9, align 8
  %17 = getelementptr inbounds nuw %union.ListCell, ptr %16, i64 %indvars.iv
  %18 = load ptr, ptr %17, align 8
  %19 = tail call fastcc ptr @set_plan_refs(ptr noundef %0, ptr noundef %18, i32 noundef %2)
  store ptr %19, ptr %17, align 8
  %indvars.iv.next = add nuw nsw i64 %indvars.iv, 1
  %20 = load i32, ptr %8, align 4
  %21 = sext i32 %20 to i64
  %22 = icmp slt i64 %indvars.iv.next, %21
  br i1 %22, label %.lr.ph40, label %._crit_edge

23:                                               ; preds = %list_length.exit
  %24 = getelementptr i8, ptr %12, i64 16
  %.val = load ptr, ptr %24, align 8
  %25 = load ptr, ptr %.val, align 8
  %26 = getelementptr inbounds nuw i8, ptr %25, i64 36
  %27 = load i8, ptr %26, align 4, !range !4, !noundef !5
  %28 = getelementptr inbounds nuw i8, ptr %1, i64 36
  %29 = load i8, ptr %28, align 4, !range !4, !noundef !5
  %.not32 = icmp eq i8 %27, %29
  br i1 %.not32, label %30, label %list_length.exit.thread

30:                                               ; preds = %23
  %31 = getelementptr inbounds nuw i8, ptr %1, i64 80
  %32 = load ptr, ptr %31, align 8
  %.not.i33 = icmp eq ptr %32, null
  br i1 %.not.i33, label %.thread36, label %33

33:                                               ; preds = %30
  call void @llvm.lifetime.start.p0(i64 8, ptr nonnull %4) #8
  call void @llvm.lifetime.start.p0(i64 1, ptr nonnull %5) #8
  call void @SS_compute_initplan_cost(ptr noundef nonnull %32, ptr noundef nonnull %4, ptr noundef nonnull %5) #8
  %34 = load double, ptr %4, align 8
  %35 = getelementptr inbounds nuw i8, ptr %25, i64 8
  %36 = load double, ptr %35, align 8
  %37 = fadd double %34, %36
  store double %37, ptr %35, align 8
  %38 = getelementptr inbounds nuw i8, ptr %25, i64 16
  %39 = load double, ptr %38, align 8
  %40 = fadd double %34, %39
  store double %40, ptr %38, align 8
  %41 = load i8, ptr %5, align 1, !range !4, !noundef !5
  %42 = trunc nuw i8 %41 to i1
  br i1 %42, label %43, label %45

43:                                               ; preds = %33
  %44 = getelementptr inbounds nuw i8, ptr %25, i64 37
  store i8 0, ptr %44, align 1
  br label %45

45:                                               ; preds = %43, %33
  %46 = load ptr, ptr %31, align 8
  %47 = getelementptr inbounds nuw i8, ptr %25, i64 80
  %48 = load ptr, ptr %47, align 8
  %49 = call ptr @list_concat(ptr noundef %46, ptr noundef %48) #8
  store ptr %49, ptr %47, align 8
  call void @llvm.lifetime.end.p0(i64 1, ptr nonnull %5) #8
  call void @llvm.lifetime.end.p0(i64 8, ptr nonnull %4) #8
  br label %.thread36

.thread36:                                        ; preds = %45, %30
  %50 = getelementptr inbounds nuw i8, ptr %25, i64 48
  %51 = load ptr, ptr %50, align 8
  %52 = getelementptr inbounds nuw i8, ptr %1, i64 48
  %53 = load ptr, ptr %52, align 8
  call void @apply_tlist_labeling(ptr noundef %51, ptr noundef %53) #8
  br label %69

list_length.exit.thread:                          ; preds = %3, %._crit_edge, %23, %list_length.exit
  tail call fastcc void @set_dummy_tlist_references(ptr noundef %1, i32 noundef %2)
  %54 = getelementptr inbounds nuw i8, ptr %1, i64 104
  %55 = load ptr, ptr %54, align 8
  %56 = icmp eq i32 %2, 0
  br i1 %56, label %offset_relid_set.exit, label %.preheader.i

.preheader.i:                                     ; preds = %list_length.exit.thread
  %57 = tail call i32 @bms_next_member(ptr noundef %55, i32 noundef -1) #8
  %58 = icmp sgt i32 %57, -1
  br i1 %58, label %.lr.ph.i, label %offset_relid_set.exit

.lr.ph.i:                                         ; preds = %.preheader.i, %.lr.ph.i
  %59 = phi i32 [ %62, %.lr.ph.i ], [ %57, %.preheader.i ]
  %.0812.i = phi ptr [ %61, %.lr.ph.i ], [ null, %.preheader.i ]
  %60 = add i32 %59, %2
  %61 = tail call ptr @bms_add_member(ptr noundef %.0812.i, i32 noundef %60) #8
  %62 = tail call i32 @bms_next_member(ptr noundef %55, i32 noundef %59) #8
  %63 = icmp sgt i32 %62, -1
  br i1 %63, label %.lr.ph.i, label %offset_relid_set.exit, !llvm.loop !12

offset_relid_set.exit:                            ; preds = %.lr.ph.i, %list_length.exit.thread, %.preheader.i
  %.09.i = phi ptr [ %55, %list_length.exit.thread ], [ null, %.preheader.i ], [ %61, %.lr.ph.i ]
  store ptr %.09.i, ptr %54, align 8
  %64 = getelementptr inbounds nuw i8, ptr %1, i64 160
  %65 = load i32, ptr %64, align 8
  %66 = icmp sgt i32 %65, -1
  br i1 %66, label %67, label %69

67:                                               ; preds = %offset_relid_set.exit
  %68 = tail call fastcc i32 @register_partpruneinfo(ptr noundef %0, i32 noundef %65, i32 noundef %2)
  store i32 %68, ptr %64, align 8
  br label %69

69:                                               ; preds = %.thread36, %offset_relid_set.exit, %67
  %.1 = phi ptr [ %1, %67 ], [ %1, %offset_relid_set.exit ], [ %25, %.thread36 ]
  ret ptr %.1
}